target datalayout = "e-m:e-p270:32:32-p271:32:32-p272:64:64-i64:64-i128:128-f80:128-n8:16:32:64-S128"
target triple = "x86_64-unknown-linux-gnu"

%struct.QEMUClock = type { %struct.anon.0, i32, i8 }
%struct.anon.0 = type { ptr }
%struct.QEMUTimerList = type { ptr, %struct.QemuMutex, ptr, %struct.anon, ptr, ptr, %struct.QemuEvent }
%struct.QemuMutex = type { %union.pthread_mutex_t, i8 }
%union.pthread_mutex_t = type { %struct.__pthread_mutex_s }
%struct.__pthread_mutex_s = type { i32, i32, i32, i32, i32, i16, i16, %struct.__pthread_internal_list }
%struct.__pthread_internal_list = type { ptr, ptr }
%struct.anon = type { ptr, ptr }
%struct.QemuEvent = type { i32, i8 }

; Function Attrs: nounwind sspstrong uwtable
define dso_local void @timerlist_notify(ptr noundef %timer_list) #0 {
entry:
  %timer_list.addr = alloca ptr, align 8
  store ptr %timer_list, ptr %timer_list.addr, align 8
  %0 = load ptr, ptr %timer_list.addr, align 8
  %notify_cb = getelementptr inbounds %struct.QEMUTimerList, ptr %0, i32 0, i32 4
  %1 = load ptr, ptr %notify_cb, align 8
  %tobool = icmp ne ptr %1, null
  br i1 %tobool, label %if.then, label %if.else

if.then:                                          ; preds = %entry
  %2 = load ptr, ptr %timer_list.addr, align 8
  %notify_cb1 = getelementptr inbounds %struct.QEMUTimerList, ptr %2, i32 0, i32 4
  %3 = load ptr, ptr %notify_cb1, align 8
  %4 = load ptr, ptr %timer_list.addr, align 8
  %notify_opaque = getelementptr inbounds %struct.QEMUTimerList, ptr %4, i32 0, i32 5
  %5 = load ptr, ptr %notify_opaque, align 8
  %6 = load ptr, ptr %timer_list.addr, align 8
  %clock = getelementptr inbounds %struct.QEMUTimerList, ptr %6, i32 0, i32 0
  %7 = load ptr, ptr %clock, align 8
  %type = getelementptr inbounds %struct.QEMUClock, ptr %7, i32 0, i32 1
  %8 = load i32, ptr %type, align 8
  call void %3(ptr noundef %5, i32 noundef %8)
  br label %if.end

if.else:                                          ; preds = %entry
  call void @qemu_notify_event()
  br label %if.end

if.end:                                           ; preds = %if.else, %if.then
  ret void
}