; Function Attrs: nounwind sspstrong uwtable
define dso_local void @timerlist_notify(ptr noundef readonly captures(none) %timer_list) local_unnamed_addr #0 {
entry:
  %notify_cb = getelementptr inbounds nuw i8, ptr %timer_list, i64 80
  %0 = load ptr, ptr %notify_cb, align 8
  %tobool.not = icmp eq ptr %0, null
  br i1 %tobool.not, label %if.else, label %if.then

if.then:                                          ; preds = %entry
  %notify_opaque = getelementptr inbounds nuw i8, ptr %timer_list, i64 88
  %1 = load ptr, ptr %notify_opaque, align 8
  %2 = load ptr, ptr %timer_list, align 8
  %type = getelementptr inbounds nuw i8, ptr %2, i64 8
  %3 = load i32, ptr %type, align 8
  tail call void %0(ptr noundef %1, i32 noundef %3) #17
  br label %if.end

if.else:                                          ; preds = %entry
  tail call void @qemu_notify_event() #17
  br label %if.end

if.end:                                           ; preds = %if.else, %if.then
  ret void
}